target datalayout = "e-m:e-p270:32:32-p271:32:32-p272:64:64-i64:64-i128:128-f80:128-n8:16:32:64-S128"
target triple = "x86_64-pc-linux-gnu"

%class.QString = type { %struct.QArrayDataPointer }
%struct.QArrayDataPointer = type { ptr, ptr, i64 }
%class.QByteArrayView = type { i64, ptr }

; Function Attrs: inlinehint mustprogress nounwind null_pointer_is_valid sspstrong uwtable
define linkonce_odr void @_ZSt4swapIxENSt9enable_ifIXsr6__and_ISt6__not_ISt15__is_tuple_likeIT_EESt21is_move_constructibleIS3_ESt18is_move_assignableIS3_EEE5valueEvE4typeERS3_SC_(ptr noundef align 8 dereferenceable(8) %0, ptr noundef align 8 dereferenceable(8) %1) #3 comdat {
  %3 = alloca ptr, align 8
  %4 = alloca ptr, align 8
  %5 = alloca i64, align 8
  store ptr %0, ptr %3, align 8
  store ptr %1, ptr %4, align 8
  call void @llvm.lifetime.start.p0(i64 8, ptr %5) #22
  %6 = load ptr, ptr %3, align 8
  %7 = load i64, ptr %6, align 8
  store i64 %7, ptr %5, align 8
  %8 = load ptr, ptr %4, align 8
  %9 = load i64, ptr %8, align 8
  %10 = load ptr, ptr %3, align 8
  store i64 %9, ptr %10, align 8
  %11 = load i64, ptr %5, align 8
  %12 = load ptr, ptr %4, align 8
  store i64 %11, ptr %12, align 8
  call void @llvm.lifetime.end.p0(i64 8, ptr %5) #22
  ret void
}

; Function Attrs: inlinehint mustprogress nounwind null_pointer_is_valid sspstrong uwtable
define linkonce_odr void @_Z11qt_ptr_swapIDsEvRPT_S2_(ptr noundef align 8 dereferenceable(8) %0, ptr noundef align 8 dereferenceable(8) %1) #3 comdat {
  %3 = alloca ptr, align 8
  %4 = alloca ptr, align 8
  %5 = alloca ptr, align 8
  store ptr %0, ptr %3, align 8
  store ptr %1, ptr %4, align 8
  call void @llvm.lifetime.start.p0(i64 8, ptr %5) #22
  %6 = load ptr, ptr %3, align 8
  %7 = load ptr, ptr %6, align 8
  store ptr %7, ptr %5, align 8
  %8 = load ptr, ptr %4, align 8
  %9 = load ptr, ptr %8, align 8
  %10 = load ptr, ptr %3, align 8
  store ptr %9, ptr %10, align 8
  %11 = load ptr, ptr %5, align 8
  %12 = load ptr, ptr %4, align 8
  store ptr %11, ptr %12, align 8
  call void @llvm.lifetime.end.p0(i64 8, ptr %5) #22
  ret void
}

; Function Attrs: inlinehint mustprogress nounwind null_pointer_is_valid sspstrong uwtable
define linkonce_odr void @_Z11qt_ptr_swapI15QTypedArrayDataIDsEEvRPT_S4_(ptr noundef align 8 dereferenceable(8) %0, ptr noundef align 8 dereferenceable(8) %1) #3 comdat {
  %3 = alloca ptr, align 8
  %4 = alloca ptr, align 8
  %5 = alloca ptr, align 8
  store ptr %0, ptr %3, align 8
  store ptr %1, ptr %4, align 8
  call void @llvm.lifetime.start.p0(i64 8, ptr %5) #22
  %6 = load ptr, ptr %3, align 8
  %7 = load ptr, ptr %6, align 8
  store ptr %7, ptr %5, align 8
  %8 = load ptr, ptr %4, align 8
  %9 = load ptr, ptr %8, align 8
  %10 = load ptr, ptr %3, align 8
  store ptr %9, ptr %10, align 8
  %11 = load ptr, ptr %5, align 8
  %12 = load ptr, ptr %4, align 8
  store ptr %11, ptr %12, align 8
  call void @llvm.lifetime.end.p0(i64 8, ptr %5) #22
  ret void
}

; Function Attrs: mustprogress nounwind null_pointer_is_valid sspstrong uwtable
define linkonce_odr void @_ZN17QArrayDataPointerIDsE4swapERS0_(ptr noundef align 8 dereferenceable_or_null(24) %0, ptr noundef align 8 dereferenceable(24) %1) #6 comdat align 2 {
  %3 = alloca ptr, align 8
  %4 = alloca ptr, align 8
  store ptr %0, ptr %3, align 8
  store ptr %1, ptr %4, align 8
  %5 = load ptr, ptr %3, align 8
  %6 = getelementptr inbounds nuw %struct.QArrayDataPointer, ptr %5, i32 0, i32 0
  %7 = load ptr, ptr %4, align 8
  %8 = getelementptr inbounds nuw %struct.QArrayDataPointer, ptr %7, i32 0, i32 0
  call void @_Z11qt_ptr_swapI15QTypedArrayDataIDsEEvRPT_S4_(ptr noundef align 8 dereferenceable(8) %6, ptr noundef align 8 dereferenceable(8) %8) #22
  %9 = getelementptr inbounds nuw %struct.QArrayDataPointer, ptr %5, i32 0, i32 1
  %10 = load ptr, ptr %4, align 8
  %11 = getelementptr inbounds nuw %struct.QArrayDataPointer, ptr %10, i32 0, i32 1
  call void @_Z11qt_ptr_swapIDsEvRPT_S2_(ptr noundef align 8 dereferenceable(8) %9, ptr noundef align 8 dereferenceable(8) %11) #22
  %12 = getelementptr inbounds nuw %struct.QArrayDataPointer, ptr %5, i32 0, i32 2
  %13 = load ptr, ptr %4, align 8
  %14 = getelementptr inbounds nuw %struct.QArrayDataPointer, ptr %13, i32 0, i32 2
  call void @_ZSt4swapIxENSt9enable_ifIXsr6__and_ISt6__not_ISt15__is_tuple_likeIT_EESt21is_move_constructibleIS3_ESt18is_move_assignableIS3_EEE5valueEvE4typeERS3_SC_(ptr noundef align 8 dereferenceable(8) %12, ptr noundef align 8 dereferenceable(8) %14) #22
  ret void
}

; Function Attrs: mustprogress nounwind null_pointer_is_valid sspstrong uwtable
define linkonce_odr noundef ptr @_ZN14QByteArrayView10castHelperEPKc(ptr noundef %0) #6 comdat align 2 {
  %2 = alloca ptr, align 8
  store ptr %0, ptr %2, align 8
  %3 = load ptr, ptr %2, align 8
  ret ptr %3
}

; Function Attrs: noinline noreturn nounwind null_pointer_is_valid sspstrong uwtable
define linkonce_odr hidden void @__clang_call_terminate(ptr noundef %0) #13 comdat {
  %2 = call ptr @__cxa_begin_catch(ptr %0) #22
  call void @_ZSt9terminatev() #26
  unreachable
}

; Function Attrs: mustprogress nounwind null_pointer_is_valid sspstrong uwtable
define linkonce_odr noundef i64 @_ZNSt11char_traitsIcE6lengthEPKc(ptr noundef %0) #6 comdat align 2 {
  %2 = alloca ptr, align 8
  store ptr %0, ptr %2, align 8
  %3 = load ptr, ptr %2, align 8
  %4 = call i64 @strlen(ptr noundef %3) #22
  ret i64 %4
}

; Function Attrs: mustprogress nounwind null_pointer_is_valid sspstrong uwtable
define linkonce_odr void @_ZN7QString4swapERS_(ptr noundef align 8 dereferenceable_or_null(24) %0, ptr noundef align 8 dereferenceable(24) %1) #6 comdat align 2 {
  %3 = alloca ptr, align 8
  %4 = alloca ptr, align 8
  store ptr %0, ptr %3, align 8
  store ptr %1, ptr %4, align 8
  %5 = load ptr, ptr %3, align 8
  %6 = getelementptr inbounds nuw %class.QString, ptr %5, i32 0, i32 0
  %7 = load ptr, ptr %4, align 8
  %8 = getelementptr inbounds nuw %class.QString, ptr %7, i32 0, i32 0
  call void @_ZN17QArrayDataPointerIDsE4swapERS0_(ptr noundef align 8 dereferenceable_or_null(24) %6, ptr noundef align 8 dereferenceable(24) %8) #22
  ret void
}

; Function Attrs: mustprogress nounwind null_pointer_is_valid sspstrong uwtable
define linkonce_odr void @_ZN14QByteArrayViewC2IcTnNSt9enable_ifIXsr9QtPrivate20IsCompatibleByteTypeIT_EE5valueEbE4typeELb1EEEPKS2_x(ptr noundef align 8 dereferenceable_or_null(16) %0, ptr noundef %1, i64 noundef %2) unnamed_addr #6 comdat align 2 {
  %4 = alloca ptr, align 8
  %5 = alloca ptr, align 8
  %6 = alloca i64, align 8
  store ptr %0, ptr %4, align 8
  store ptr %1, ptr %5, align 8
  store i64 %2, ptr %6, align 8
  %7 = load ptr, ptr %4, align 8
  %8 = getelementptr inbounds nuw %class.QByteArrayView, ptr %7, i32 0, i32 0
  %9 = load i64, ptr %6, align 8
  store i64 %9, ptr %8, align 8
  %10 = getelementptr inbounds nuw %class.QByteArrayView, ptr %7, i32 0, i32 1
  %11 = load ptr, ptr %5, align 8
  %12 = call noundef ptr @_ZN14QByteArrayView10castHelperEPKc(ptr noundef %11) #22
  store ptr %12, ptr %10, align 8
  ret void
}

; Function Attrs: mustprogress nounwind null_pointer_is_valid sspstrong uwtable
define linkonce_odr noundef i64 @_ZN14QByteArrayView19lengthHelperPointerIcEExPKT_(ptr noundef %0) #6 comdat align 2 personality ptr @__gxx_personality_v0 {
  %2 = alloca ptr, align 8
  store ptr %0, ptr %2, align 8
  %3 = load ptr, ptr %2, align 8
  %4 = invoke noundef i64 @_ZNSt11char_traitsIcE6lengthEPKc(ptr noundef %3)
          to label %5 unwind label %6

5:                                                ; preds = %1
  ret i64 %4

6:                                                ; preds = %1
  %7 = landingpad { ptr, i32 }
          catch ptr null
  %8 = extractvalue { ptr, i32 } %7, 0
  call void @__clang_call_terminate(ptr %8) #26
  unreachable
}

; Function Attrs: mustprogress nounwind null_pointer_is_valid sspstrong uwtable
define linkonce_odr noundef align 8 dereferenceable(24) ptr @_ZN7QStringaSEOS_(ptr noundef align 8 dereferenceable_or_null(24) %0, ptr noundef align 8 dereferenceable(24) %1) #6 comdat align 2 {
  %3 = alloca ptr, align 8
  %4 = alloca ptr, align 8
  store ptr %0, ptr %3, align 8
  store ptr %1, ptr %4, align 8
  %5 = load ptr, ptr %3, align 8
  %6 = load ptr, ptr %4, align 8
  call void @_ZN7QString4swapERS_(ptr noundef align 8 dereferenceable_or_null(24) %5, ptr noundef align 8 dereferenceable(24) %6) #22
  ret ptr %5
}

; Function Attrs: mustprogress nounwind null_pointer_is_valid sspstrong uwtable
define linkonce_odr void @_ZN14QByteArrayViewC2IPKcTnNSt9enable_ifIXsr9QtPrivate28IsCompatibleByteArrayPointerIT_EE5valueEbE4typeELb1EEERKS4_(ptr noundef align 8 dereferenceable_or_null(16) %0, ptr noundef align 8 dereferenceable(8) %1) unnamed_addr #6 comdat align 2 {
  %3 = alloca ptr, align 8
  %4 = alloca ptr, align 8
  store ptr %0, ptr %3, align 8
  store ptr %1, ptr %4, align 8
  %5 = load ptr, ptr %3, align 8
  %6 = load ptr, ptr %4, align 8
  %7 = load ptr, ptr %6, align 8
  %8 = load ptr, ptr %4, align 8
  %9 = load ptr, ptr %8, align 8
  %10 = icmp ne ptr %9, null
  br i1 %10, label %11, label %15

11:                                               ; preds = %2
  %12 = load ptr, ptr %4, align 8
  %13 = load ptr, ptr %12, align 8
  %14 = call noundef i64 @_ZN14QByteArrayView19lengthHelperPointerIcEExPKT_(ptr noundef %13) #22
  br label %16

15:                                               ; preds = %2
  br label %16

16:                                               ; preds = %15, %11
  %17 = phi i64 [ %14, %11 ], [ 0, %15 ]
  call void @_ZN14QByteArrayViewC2IcTnNSt9enable_ifIXsr9QtPrivate20IsCompatibleByteTypeIT_EE5valueEbE4typeELb1EEEPKS2_x(ptr noundef align 8 dereferenceable_or_null(16) %5, ptr noundef %7, i64 noundef %17)
  ret void
}

; Function Attrs: mustprogress nounwind null_pointer_is_valid sspstrong uwtable
define linkonce_odr void @_ZN17QArrayDataPointerIDsEC2Ev(ptr noundef align 8 dereferenceable_or_null(24) %0) unnamed_addr #6 comdat align 2 {
  %2 = alloca ptr, align 8
  store ptr %0, ptr %2, align 8
  %3 = load ptr, ptr %2, align 8
  %4 = getelementptr inbounds nuw %struct.QArrayDataPointer, ptr %3, i32 0, i32 0
  store ptr null, ptr %4, align 8
  %5 = getelementptr inbounds nuw %struct.QArrayDataPointer, ptr %3, i32 0, i32 1
  store ptr null, ptr %5, align 8
  %6 = getelementptr inbounds nuw %struct.QArrayDataPointer, ptr %3, i32 0, i32 2
  store i64 0, ptr %6, align 8
  ret void
}

; Function Attrs: inlinehint mustprogress null_pointer_is_valid sspstrong uwtable
define linkonce_odr noundef align 8 dereferenceable(24) ptr @_ZN7QStringaSEPKc(ptr noundef align 8 dereferenceable_or_null(24) %0, ptr noundef %1) #4 comdat align 2 {
  %3 = alloca ptr, align 8
  %4 = alloca ptr, align 8
  %5 = alloca %class.QString, align 8
  %6 = alloca %class.QByteArrayView, align 8
  store ptr %0, ptr %3, align 8
  store ptr %1, ptr %4, align 8
  %7 = load ptr, ptr %3, align 8
  call void @llvm.lifetime.start.p0(i64 24, ptr %5) #22
  call void @_ZN14QByteArrayViewC2IPKcTnNSt9enable_ifIXsr9QtPrivate28IsCompatibleByteArrayPointerIT_EE5valueEbE4typeELb1EEERKS4_(ptr noundef align 8 dereferenceable_or_null(16) %6, ptr noundef align 8 dereferenceable(8) %4) #22
  %8 = getelementptr inbounds nuw { i64, ptr }, ptr %6, i32 0, i32 0
  %9 = load i64, ptr %8, align 8
  %10 = getelementptr inbounds nuw { i64, ptr }, ptr %6, i32 0, i32 1
  %11 = load ptr, ptr %10, align 8
  call void @_ZN7QString8fromUtf8E14QByteArrayView(ptr dead_on_unwind writable sret(%class.QString) align 8 %5, i64 %9, ptr %11)
  %12 = call noundef align 8 dereferenceable(24) ptr @_ZN7QStringaSEOS_(ptr noundef align 8 dereferenceable_or_null(24) %7, ptr noundef align 8 dereferenceable(24) %5) #22
  call void @_ZN7QStringD2Ev(ptr noundef align 8 dereferenceable_or_null(24) %5) #22
  call void @llvm.lifetime.end.p0(i64 24, ptr %5) #22
  ret ptr %12
}

; Function Attrs: inlinehint mustprogress nounwind null_pointer_is_valid sspstrong uwtable
define linkonce_odr void @_ZN7QStringC2Ev(ptr noundef align 8 dereferenceable_or_null(24) %0) unnamed_addr #3 comdat align 2 {
  %2 = alloca ptr, align 8
  store ptr %0, ptr %2, align 8
  %3 = load ptr, ptr %2, align 8
  %4 = getelementptr inbounds nuw %class.QString, ptr %3, i32 0, i32 0
  call void @_ZN17QArrayDataPointerIDsEC2Ev(ptr noundef align 8 dereferenceable_or_null(24) %4) #22
  ret void
}

; Function Attrs: mustprogress null_pointer_is_valid sspstrong uwtable
define void @_Z14val_to_qstringjPK13_value_stringPKc(ptr dead_on_unwind noalias writable sret(%class.QString) align 8 %0, i32 noundef %1, ptr noundef %2, ptr noundef %3) #0 personality ptr @__gxx_personality_v0 {
  %5 = alloca ptr, align 8
  %6 = alloca i32, align 4
  %7 = alloca ptr, align 8
  %8 = alloca ptr, align 8
  %9 = alloca i1, align 1
  %10 = alloca ptr, align 8
  %11 = alloca ptr, align 8
  %12 = alloca i32, align 4
  store ptr %0, ptr %5, align 8
  store i32 %1, ptr %6, align 4
  store ptr %2, ptr %7, align 8
  store ptr %3, ptr %8, align 8
  store i1 false, ptr %9, align 1
  call void @_ZN7QStringC2Ev(ptr noundef align 8 dereferenceable_or_null(24) %0) #22
  call void @llvm.lifetime.start.p0(i64 8, ptr %10) #22
  %13 = load i32, ptr %6, align 4
  %14 = load ptr, ptr %7, align 8
  %15 = load ptr, ptr %8, align 8
  %16 = invoke ptr @val_to_str_wmem(ptr noundef null, i32 noundef %13, ptr noundef %14, ptr noundef %15)
          to label %17 unwind label %24

17:                                               ; preds = %4
  store ptr %16, ptr %10, align 8
  %18 = load ptr, ptr %10, align 8
  %19 = invoke noundef align 8 dereferenceable(24) ptr @_ZN7QStringaSEPKc(ptr noundef align 8 dereferenceable_or_null(24) %0, ptr noundef %18)
          to label %20 unwind label %24

20:                                               ; preds = %17
  %21 = load ptr, ptr %10, align 8
  invoke void @wmem_free(ptr noundef null, ptr noundef %21)
          to label %22 unwind label %24

22:                                               ; preds = %20
  store i1 true, ptr %9, align 1
  call void @llvm.lifetime.end.p0(i64 8, ptr %10) #22
  %23 = load i1, ptr %9, align 1
  br i1 %23, label %29, label %28

24:                                               ; preds = %20, %17, %4
  %25 = landingpad { ptr, i32 }
          cleanup
  %26 = extractvalue { ptr, i32 } %25, 0
  store ptr %26, ptr %11, align 8
  %27 = extractvalue { ptr, i32 } %25, 1
  store i32 %27, ptr %12, align 4
  call void @llvm.lifetime.end.p0(i64 8, ptr %10) #22
  call void @_ZN7QStringD2Ev(ptr noundef align 8 dereferenceable_or_null(24) %0) #22
  br label %30

28:                                               ; preds = %22
  call void @_ZN7QStringD2Ev(ptr noundef align 8 dereferenceable_or_null(24) %0) #22
  br label %29

29:                                               ; preds = %28, %22
  ret void

30:                                               ; preds = %24
  %31 = load ptr, ptr %11, align 8
  %32 = load i32, ptr %12, align 4
  %33 = insertvalue { ptr, i32 } poison, ptr %31, 0
  %34 = insertvalue { ptr, i32 } %33, i32 %32, 1
  resume { ptr, i32 } %34
}